target datalayout = "e-m:e-p270:32:32-p271:32:32-p272:64:64-i64:64-i128:128-f80:128-n8:16:32:64-S128"
target triple = "x86_64-pc-linux-gnu"

%struct.FunctionCallInfoBaseData = type { ptr, ptr, ptr, i32, i8, i16, [0 x %struct.NullableDatum] }
%struct.NullableDatum = type { i64, i8 }

@.str.1 = private unnamed_addr constant [12 x i8] c"guc_funcs.c\00", align 1
@.str.17 = private unnamed_addr constant [28 x i8] c"SET requires parameter name\00", align 1
@__func__.set_config_by_name = private unnamed_addr constant [19 x i8] c"set_config_by_name\00", align 1

; Function Attrs: inlinehint nounwind uwtable
define internal i64 @PointerGetDatum(ptr noundef %0) #6 {
  %2 = alloca ptr, align 8
  store ptr %0, ptr %2, align 8
  %3 = load ptr, ptr %2, align 8
  %4 = ptrtoint ptr %3 to i64
  ret i64 %4
}

; Function Attrs: inlinehint nounwind uwtable
define internal zeroext i1 @DatumGetBool(i64 noundef %0) #6 {
  %2 = alloca i64, align 8
  store i64 %0, ptr %2, align 8
  %3 = load i64, ptr %2, align 8
  %4 = icmp ne i64 %3, 0
  ret i1 %4
}

; Function Attrs: inlinehint nounwind uwtable
define internal ptr @DatumGetPointer(i64 noundef %0) #6 {
  %2 = alloca i64, align 8
  store i64 %0, ptr %2, align 8
  %3 = load i64, ptr %2, align 8
  %4 = inttoptr i64 %3 to ptr
  ret ptr %4
}

; Function Attrs: nounwind uwtable
define dso_local i64 @set_config_by_name(ptr noundef %0) #0 {
  %2 = alloca ptr, align 8
  %3 = alloca ptr, align 8
  %4 = alloca ptr, align 8
  %5 = alloca ptr, align 8
  %6 = alloca i8, align 1
  store ptr %0, ptr %2, align 8
  call void @llvm.lifetime.start.p0(i64 8, ptr %3) #7
  call void @llvm.lifetime.start.p0(i64 8, ptr %4) #7
  call void @llvm.lifetime.start.p0(i64 8, ptr %5) #7
  call void @llvm.lifetime.start.p0(i64 1, ptr %6) #7
  %7 = load ptr, ptr %2, align 8
  %8 = getelementptr inbounds nuw %struct.FunctionCallInfoBaseData, ptr %7, i32 0, i32 6
  %9 = getelementptr inbounds [0 x %struct.NullableDatum], ptr %8, i64 0, i64 0
  %10 = getelementptr inbounds nuw %struct.NullableDatum, ptr %9, i32 0, i32 1
  %11 = load i8, ptr %10, align 8, !range !4, !noundef !5
  %12 = trunc i8 %11 to i1
  br i1 %12, label %13, label %25

13:                                               ; preds = %1
  br label %14

14:                                               ; preds = %13
  br i1 true, label %15, label %17

15:                                               ; preds = %14
  %16 = call zeroext i1 @errstart_cold(i32 noundef 21, ptr noundef null) #8
  br i1 %16, label %19, label %22

17:                                               ; preds = %14
  %18 = call zeroext i1 @errstart(i32 noundef 21, ptr noundef null)
  br i1 %18, label %19, label %22

19:                                               ; preds = %17, %15
  %20 = call i32 @errcode(i32 noundef 67108994)
  %21 = call i32 (ptr, ...) @errmsg(ptr noundef @.str.17)
  call void @errfinish(ptr noundef @.str.1, i32 noundef 342, ptr noundef @__func__.set_config_by_name)
  br label %22

22:                                               ; preds = %19, %17, %15
  unreachable

23:                                               ; No predecessors!
  br label %24

24:                                               ; preds = %23
  br label %25

25:                                               ; preds = %24, %1
  %26 = load ptr, ptr %2, align 8
  %27 = getelementptr inbounds nuw %struct.FunctionCallInfoBaseData, ptr %26, i32 0, i32 6
  %28 = getelementptr inbounds [0 x %struct.NullableDatum], ptr %27, i64 0, i64 0
  %29 = getelementptr inbounds nuw %struct.NullableDatum, ptr %28, i32 0, i32 0
  %30 = load i64, ptr %29, align 8
  %31 = call ptr @DatumGetPointer(i64 noundef %30)
  %32 = call ptr @text_to_cstring(ptr noundef %31)
  store ptr %32, ptr %3, align 8
  %33 = load ptr, ptr %2, align 8
  %34 = getelementptr inbounds nuw %struct.FunctionCallInfoBaseData, ptr %33, i32 0, i32 6
  %35 = getelementptr inbounds [0 x %struct.NullableDatum], ptr %34, i64 0, i64 1
  %36 = getelementptr inbounds nuw %struct.NullableDatum, ptr %35, i32 0, i32 1
  %37 = load i8, ptr %36, align 8, !range !4, !noundef !5
  %38 = trunc i8 %37 to i1
  br i1 %38, label %39, label %40

39:                                               ; preds = %25
  store ptr null, ptr %4, align 8
  br label %48

40:                                               ; preds = %25
  %41 = load ptr, ptr %2, align 8
  %42 = getelementptr inbounds nuw %struct.FunctionCallInfoBaseData, ptr %41, i32 0, i32 6
  %43 = getelementptr inbounds [0 x %struct.NullableDatum], ptr %42, i64 0, i64 1
  %44 = getelementptr inbounds nuw %struct.NullableDatum, ptr %43, i32 0, i32 0
  %45 = load i64, ptr %44, align 8
  %46 = call ptr @DatumGetPointer(i64 noundef %45)
  %47 = call ptr @text_to_cstring(ptr noundef %46)
  store ptr %47, ptr %4, align 8
  br label %48

48:                                               ; preds = %40, %39
  %49 = load ptr, ptr %2, align 8
  %50 = getelementptr inbounds nuw %struct.FunctionCallInfoBaseData, ptr %49, i32 0, i32 6
  %51 = getelementptr inbounds [0 x %struct.NullableDatum], ptr %50, i64 0, i64 2
  %52 = getelementptr inbounds nuw %struct.NullableDatum, ptr %51, i32 0, i32 1
  %53 = load i8, ptr %52, align 8, !range !4, !noundef !5
  %54 = trunc i8 %53 to i1
  br i1 %54, label %55, label %56

55:                                               ; preds = %48
  store i8 0, ptr %6, align 1
  br label %64

56:                                               ; preds = %48
  %57 = load ptr, ptr %2, align 8
  %58 = getelementptr inbounds nuw %struct.FunctionCallInfoBaseData, ptr %57, i32 0, i32 6
  %59 = getelementptr inbounds [0 x %struct.NullableDatum], ptr %58, i64 0, i64 2
  %60 = getelementptr inbounds nuw %struct.NullableDatum, ptr %59, i32 0, i32 0
  %61 = load i64, ptr %60, align 8
  %62 = call zeroext i1 @DatumGetBool(i64 noundef %61)
  %63 = zext i1 %62 to i8
  store i8 %63, ptr %6, align 1
  br label %64

64:                                               ; preds = %56, %55
  %65 = load ptr, ptr %3, align 8
  %66 = load ptr, ptr %4, align 8
  %67 = call zeroext i1 @superuser()
  %68 = select i1 %67, i32 5, i32 6
  %69 = load i8, ptr %6, align 1, !range !4, !noundef !5
  %70 = trunc i8 %69 to i1
  %71 = select i1 %70, i32 1, i32 0
  %72 = call i32 @set_config_option(ptr noundef %65, ptr noundef %66, i32 noundef %68, i32 noundef 13, i32 noundef %71, i1 noundef zeroext true, i32 noundef 0, i1 noundef zeroext false)
  %73 = load ptr, ptr %3, align 8
  %74 = call ptr @GetConfigOptionByName(ptr noundef %73, ptr noundef null, i1 noundef zeroext false)
  store ptr %74, ptr %5, align 8
  %75 = load ptr, ptr %5, align 8
  %76 = call ptr @cstring_to_text(ptr noundef %75)
  %77 = call i64 @PointerGetDatum(ptr noundef %76)
  call void @llvm.lifetime.end.p0(i64 1, ptr %6) #7
  call void @llvm.lifetime.end.p0(i64 8, ptr %5) #7
  call void @llvm.lifetime.end.p0(i64 8, ptr %4) #7
  call void @llvm.lifetime.end.p0(i64 8, ptr %3) #7
  ret i64 %77
}