; Function Attrs: nounwind uwtable
define dso_local i64 @set_config_by_name(ptr noundef readonly captures(none) %0) local_unnamed_addr #0 {
  %2 = getelementptr inbounds nuw i8, ptr %0, i64 40
  %3 = load i8, ptr %2, align 8, !range !4, !noundef !5
  %4 = trunc nuw i8 %3 to i1
  br i1 %4, label %5, label %9

5:                                                ; preds = %1
  %6 = tail call zeroext i1 @errstart_cold(i32 noundef 21, ptr noundef null) #8
  tail call void @llvm.assume(i1 %6)
  %7 = tail call i32 @errcode(i32 noundef 67108994) #7
  %8 = tail call i32 (ptr, ...) @errmsg(ptr noundef nonnull @.str.17) #7
  tail call void @errfinish(ptr noundef nonnull @.str.1, i32 noundef 342, ptr noundef nonnull @__func__.set_config_by_name) #7
  unreachable

9:                                                ; preds = %1
  %10 = getelementptr inbounds nuw i8, ptr %0, i64 32
  %11 = load i64, ptr %10, align 8
  %12 = inttoptr i64 %11 to ptr
  %13 = tail call ptr @text_to_cstring(ptr noundef %12) #7
  %14 = getelementptr inbounds nuw i8, ptr %0, i64 56
  %15 = load i8, ptr %14, align 8, !range !4, !noundef !5
  %16 = trunc nuw i8 %15 to i1
  br i1 %16, label %22, label %17

17:                                               ; preds = %9
  %18 = getelementptr inbounds nuw i8, ptr %0, i64 48
  %19 = load i64, ptr %18, align 8
  %20 = inttoptr i64 %19 to ptr
  %21 = tail call ptr @text_to_cstring(ptr noundef %20) #7
  br label %22

22:                                               ; preds = %9, %17
  %.010 = phi ptr [ %21, %17 ], [ null, %9 ]
  %23 = getelementptr inbounds nuw i8, ptr %0, i64 72
  %24 = load i8, ptr %23, align 8, !range !4, !noundef !5
  %25 = trunc nuw i8 %24 to i1
  br i1 %25, label %31, label %26

26:                                               ; preds = %22
  %27 = getelementptr inbounds nuw i8, ptr %0, i64 64
  %28 = load i64, ptr %27, align 8
  %29 = icmp ne i64 %28, 0
  %30 = zext i1 %29 to i32
  br label %31

31:                                               ; preds = %22, %26
  %.0 = phi i32 [ %30, %26 ], [ 0, %22 ]
  %32 = tail call zeroext i1 @superuser() #7
  %33 = select i1 %32, i32 5, i32 6
  %34 = tail call i32 @set_config_option(ptr noundef %13, ptr noundef %.010, i32 noundef %33, i32 noundef 13, i32 noundef %.0, i1 noundef zeroext true, i32 noundef 0, i1 noundef zeroext false) #7
  %35 = tail call ptr @GetConfigOptionByName(ptr noundef %13, ptr noundef null, i1 noundef zeroext false) #7
  %36 = tail call ptr @cstring_to_text(ptr noundef %35) #7
  %37 = ptrtoint ptr %36 to i64
  ret i64 %37
}